
03_Multi_LED.elf:     file format elf32-avr

Sections:
Idx Name          Size      VMA       LMA       File off  Algn
  0 .data         00000002  00800100  00000bb0  00000c44  2**0
                  CONTENTS, ALLOC, LOAD, DATA
  1 .text         00000bb0  00000000  00000000  00000094  2**1
                  CONTENTS, ALLOC, LOAD, READONLY, CODE
  2 .bss          00000019  00800102  00800102  00000c46  2**0
                  ALLOC
  3 .stab         000006cc  00000000  00000000  00000c48  2**2
                  CONTENTS, READONLY, DEBUGGING
  4 .stabstr      00000097  00000000  00000000  00001314  2**0
                  CONTENTS, READONLY, DEBUGGING
  5 .comment      0000002f  00000000  00000000  000013ab  2**0
                  CONTENTS, READONLY

Disassembly of section .text:

00000000 <__vectors>:
   0:	0c 94 51 00 	jmp	0xa2	; 0xa2 <__ctors_end>
   4:	0c 94 6e 00 	jmp	0xdc	; 0xdc <__bad_interrupt>
   8:	0c 94 6e 00 	jmp	0xdc	; 0xdc <__bad_interrupt>
   c:	0c 94 65 05 	jmp	0xaca	; 0xaca <__vector_3>
  10:	0c 94 6e 00 	jmp	0xdc	; 0xdc <__bad_interrupt>
  14:	0c 94 6e 00 	jmp	0xdc	; 0xdc <__bad_interrupt>
  18:	0c 94 6e 00 	jmp	0xdc	; 0xdc <__bad_interrupt>
  1c:	0c 94 9c 05 	jmp	0xb38	; 0xb38 <__vector_7>
  20:	0c 94 6e 00 	jmp	0xdc	; 0xdc <__bad_interrupt>
  24:	0c 94 6e 00 	jmp	0xdc	; 0xdc <__bad_interrupt>
  28:	0c 94 6e 00 	jmp	0xdc	; 0xdc <__bad_interrupt>
  2c:	0c 94 6e 00 	jmp	0xdc	; 0xdc <__bad_interrupt>
  30:	0c 94 6e 00 	jmp	0xdc	; 0xdc <__bad_interrupt>
  34:	0c 94 6e 00 	jmp	0xdc	; 0xdc <__bad_interrupt>
  38:	0c 94 96 00 	jmp	0x12c	; 0x12c <__vector_14>
  3c:	0c 94 6e 00 	jmp	0xdc	; 0xdc <__bad_interrupt>
  40:	0c 94 6e 00 	jmp	0xdc	; 0xdc <__bad_interrupt>
  44:	0c 94 6e 00 	jmp	0xdc	; 0xdc <__bad_interrupt>
  48:	0c 94 6e 00 	jmp	0xdc	; 0xdc <__bad_interrupt>
  4c:	0c 94 6e 00 	jmp	0xdc	; 0xdc <__bad_interrupt>
  50:	0c 94 6e 00 	jmp	0xdc	; 0xdc <__bad_interrupt>
  54:	0c 94 6e 00 	jmp	0xdc	; 0xdc <__bad_interrupt>
  58:	0c 94 6e 00 	jmp	0xdc	; 0xdc <__bad_interrupt>
  5c:	0c 94 6e 00 	jmp	0xdc	; 0xdc <__bad_interrupt>
  60:	0c 94 6e 00 	jmp	0xdc	; 0xdc <__bad_interrupt>
  64:	0c 94 6e 00 	jmp	0xdc	; 0xdc <__bad_interrupt>

00000068 <cyfry>:
  68:	14 77 4c 45 27 85 84 17 04 05 ff df ef fd 7f f7     .wLE'...........
  78:	5f 57 55 fc bc 9c be 36 77 dd 9c 00 00 00           _WU....6w.....

00000086 <enc_tab>:
  86:	00 02 04 00 03 00 01 10 03 02 00 00 03 02 01 00     ................
  96:	06 00 04 00 06 05 00 20 06 05 04 00                 ....... ....

000000a2 <__ctors_end>:
  a2:	11 24       	eor	r1, r1
  a4:	1f be       	out	0x3f, r1	; 63
  a6:	cf ef       	ldi	r28, 0xFF	; 255
  a8:	d8 e0       	ldi	r29, 0x08	; 8
  aa:	de bf       	out	0x3e, r29	; 62
  ac:	cd bf       	out	0x3d, r28	; 61

000000ae <__do_copy_data>:
  ae:	11 e0       	ldi	r17, 0x01	; 1
  b0:	a0 e0       	ldi	r26, 0x00	; 0
  b2:	b1 e0       	ldi	r27, 0x01	; 1
  b4:	e0 eb       	ldi	r30, 0xB0	; 176
  b6:	fb e0       	ldi	r31, 0x0B	; 11
  b8:	02 c0       	rjmp	.+4      	; 0xbe <__do_copy_data+0x10>
  ba:	05 90       	lpm	r0, Z+
  bc:	0d 92       	st	X+, r0
  be:	a2 30       	cpi	r26, 0x02	; 2
  c0:	b1 07       	cpc	r27, r17
  c2:	d9 f7       	brne	.-10     	; 0xba <__do_copy_data+0xc>

000000c4 <__do_clear_bss>:
  c4:	21 e0       	ldi	r18, 0x01	; 1
  c6:	a2 e0       	ldi	r26, 0x02	; 2
  c8:	b1 e0       	ldi	r27, 0x01	; 1
  ca:	01 c0       	rjmp	.+2      	; 0xce <.do_clear_bss_start>

000000cc <.do_clear_bss_loop>:
  cc:	1d 92       	st	X+, r1

000000ce <.do_clear_bss_start>:
  ce:	ab 31       	cpi	r26, 0x1B	; 27
  d0:	b2 07       	cpc	r27, r18
  d2:	e1 f7       	brne	.-8      	; 0xcc <.do_clear_bss_loop>
  d4:	0e 94 ca 04 	call	0x994	; 0x994 <main>
  d8:	0c 94 d6 05 	jmp	0xbac	; 0xbac <_exit>

000000dc <__bad_interrupt>:
  dc:	0c 94 00 00 	jmp	0	; 0x0 <__vectors>

000000e0 <d_led_init>:
  e0:	8f ef       	ldi	r24, 0xFF	; 255
  e2:	8a b9       	out	0x0a, r24	; 10
  e4:	8b b9       	out	0x0b, r24	; 11
  e6:	87 b1       	in	r24, 0x07	; 7
  e8:	8f 60       	ori	r24, 0x0F	; 15
  ea:	87 b9       	out	0x07, r24	; 7
  ec:	88 b1       	in	r24, 0x08	; 8
  ee:	8f 60       	ori	r24, 0x0F	; 15
  f0:	88 b9       	out	0x08, r24	; 8
  f2:	84 b5       	in	r24, 0x24	; 36
  f4:	82 60       	ori	r24, 0x02	; 2
  f6:	84 bd       	out	0x24, r24	; 36
  f8:	85 b5       	in	r24, 0x25	; 37
  fa:	85 60       	ori	r24, 0x05	; 5
  fc:	85 bd       	out	0x25, r24	; 37
  fe:	86 e2       	ldi	r24, 0x26	; 38
 100:	87 bd       	out	0x27, r24	; 39
 102:	ee e6       	ldi	r30, 0x6E	; 110
 104:	f0 e0       	ldi	r31, 0x00	; 0
 106:	80 81       	ld	r24, Z
 108:	82 60       	ori	r24, 0x02	; 2
 10a:	80 83       	st	Z, r24
 10c:	08 95       	ret

0000010e <d_led_on>:
 10e:	ee e6       	ldi	r30, 0x6E	; 110
 110:	f0 e0       	ldi	r31, 0x00	; 0
 112:	80 81       	ld	r24, Z
 114:	82 60       	ori	r24, 0x02	; 2
 116:	80 83       	st	Z, r24
 118:	08 95       	ret

0000011a <d_led_off>:
 11a:	ee e6       	ldi	r30, 0x6E	; 110
 11c:	f0 e0       	ldi	r31, 0x00	; 0
 11e:	80 81       	ld	r24, Z
 120:	8d 7f       	andi	r24, 0xFD	; 253
 122:	80 83       	st	Z, r24
 124:	88 b1       	in	r24, 0x08	; 8
 126:	8f 60       	ori	r24, 0x0F	; 15
 128:	88 b9       	out	0x08, r24	; 8
 12a:	08 95       	ret

0000012c <__vector_14>:
 12c:	1f 92       	push	r1
 12e:	0f 92       	push	r0
 130:	0f b6       	in	r0, 0x3f	; 63
 132:	0f 92       	push	r0
 134:	11 24       	eor	r1, r1
 136:	2f 93       	push	r18
 138:	8f 93       	push	r24
 13a:	9f 93       	push	r25
 13c:	ef 93       	push	r30
 13e:	ff 93       	push	r31
 140:	88 b1       	in	r24, 0x08	; 8
 142:	80 7f       	andi	r24, 0xF0	; 240
 144:	88 b9       	out	0x08, r24	; 8
 146:	80 91 00 01 	lds	r24, 0x0100
 14a:	81 30       	cpi	r24, 0x01	; 1
 14c:	21 f4       	brne	.+8      	; 0x156 <__vector_14+0x2a>
 14e:	8b b1       	in	r24, 0x0b	; 11
 150:	e0 91 09 01 	lds	r30, 0x0109
 154:	11 c0       	rjmp	.+34     	; 0x178 <__vector_14+0x4c>
 156:	82 30       	cpi	r24, 0x02	; 2
 158:	21 f4       	brne	.+8      	; 0x162 <__vector_14+0x36>
 15a:	8b b1       	in	r24, 0x0b	; 11
 15c:	e0 91 0c 01 	lds	r30, 0x010C
 160:	0b c0       	rjmp	.+22     	; 0x178 <__vector_14+0x4c>
 162:	84 30       	cpi	r24, 0x04	; 4
 164:	21 f4       	brne	.+8      	; 0x16e <__vector_14+0x42>
 166:	8b b1       	in	r24, 0x0b	; 11
 168:	e0 91 0b 01 	lds	r30, 0x010B
 16c:	05 c0       	rjmp	.+10     	; 0x178 <__vector_14+0x4c>
 16e:	88 30       	cpi	r24, 0x08	; 8
 170:	59 f4       	brne	.+22     	; 0x188 <__vector_14+0x5c>
 172:	8b b1       	in	r24, 0x0b	; 11
 174:	e0 91 0a 01 	lds	r30, 0x010A
 178:	f0 e0       	ldi	r31, 0x00	; 0
 17a:	e8 59       	subi	r30, 0x98	; 152
 17c:	ff 4f       	sbci	r31, 0xFF	; 255
 17e:	e4 91       	lpm	r30, Z
 180:	eb 7f       	andi	r30, 0xFB	; 251
 182:	84 70       	andi	r24, 0x04	; 4
 184:	e8 2b       	or	r30, r24
 186:	eb b9       	out	0x0b, r30	; 11
 188:	98 b1       	in	r25, 0x08	; 8
 18a:	20 91 00 01 	lds	r18, 0x0100
 18e:	82 2f       	mov	r24, r18
 190:	8f 70       	andi	r24, 0x0F	; 15
 192:	80 95       	com	r24
 194:	9f 70       	andi	r25, 0x0F	; 15
 196:	89 2b       	or	r24, r25
 198:	88 b9       	out	0x08, r24	; 8
 19a:	82 2f       	mov	r24, r18
 19c:	88 0f       	add	r24, r24
 19e:	89 30       	cpi	r24, 0x09	; 9
 1a0:	08 f4       	brcc	.+2      	; 0x1a4 <__vector_14+0x78>
 1a2:	01 c0       	rjmp	.+2      	; 0x1a6 <__vector_14+0x7a>
 1a4:	81 e0       	ldi	r24, 0x01	; 1
 1a6:	80 93 00 01 	sts	0x0100, r24
 1aa:	ff 91       	pop	r31
 1ac:	ef 91       	pop	r30
 1ae:	9f 91       	pop	r25
 1b0:	8f 91       	pop	r24
 1b2:	2f 91       	pop	r18
 1b4:	0f 90       	pop	r0
 1b6:	0f be       	out	0x3f, r0	; 63
 1b8:	0f 90       	pop	r0
 1ba:	1f 90       	pop	r1
 1bc:	18 95       	reti

000001be <register_enc_event_sw_callback>:
 1be:	90 93 03 01 	sts	0x0103, r25
 1c2:	80 93 02 01 	sts	0x0102, r24
 1c6:	08 95       	ret

000001c8 <register_enc_event_callback>:
 1c8:	90 93 05 01 	sts	0x0105, r25
 1cc:	80 93 04 01 	sts	0x0104, r24
 1d0:	08 95       	ret

000001d2 <get_encoder>:
 1d2:	8f b7       	in	r24, 0x3f	; 63
 1d4:	f8 94       	cli
 1d6:	20 91 0f 01 	lds	r18, 0x010F
 1da:	30 91 10 01 	lds	r19, 0x0110
 1de:	8f bf       	out	0x3f, r24	; 63
 1e0:	c9 01       	movw	r24, r18
 1e2:	08 95       	ret

000001e4 <set_encoder>:
 1e4:	2f b7       	in	r18, 0x3f	; 63
 1e6:	f8 94       	cli
 1e8:	90 93 10 01 	sts	0x0110, r25
 1ec:	80 93 0f 01 	sts	0x010F, r24
 1f0:	2f bf       	out	0x3f, r18	; 63
 1f2:	08 95       	ret

000001f4 <encoder_proc>:
 1f4:	83 b1       	in	r24, 0x03	; 3
 1f6:	84 ff       	sbrs	r24, 4
 1f8:	02 c0       	rjmp	.+4      	; 0x1fe <encoder_proc+0xa>
 1fa:	92 e0       	ldi	r25, 0x02	; 2
 1fc:	01 c0       	rjmp	.+2      	; 0x200 <encoder_proc+0xc>
 1fe:	90 e0       	ldi	r25, 0x00	; 0
 200:	86 95       	lsr	r24
 202:	81 70       	andi	r24, 0x01	; 1
 204:	89 2b       	or	r24, r25
 206:	e0 91 06 01 	lds	r30, 0x0106
 20a:	ef 70       	andi	r30, 0x0F	; 15
 20c:	94 e0       	ldi	r25, 0x04	; 4
 20e:	e9 9f       	mul	r30, r25
 210:	f0 01       	movw	r30, r0
 212:	11 24       	eor	r1, r1
 214:	e8 0f       	add	r30, r24
 216:	f1 1d       	adc	r31, r1
 218:	ea 57       	subi	r30, 0x7A	; 122
 21a:	ff 4f       	sbci	r31, 0xFF	; 255
 21c:	e4 91       	lpm	r30, Z
 21e:	e0 93 06 01 	sts	0x0106, r30
 222:	e0 73       	andi	r30, 0x30	; 48
 224:	91 f0       	breq	.+36     	; 0x24a <encoder_proc+0x56>
 226:	e0 93 0d 01 	sts	0x010D, r30
 22a:	80 91 0f 01 	lds	r24, 0x010F
 22e:	90 91 10 01 	lds	r25, 0x0110
 232:	e0 32       	cpi	r30, 0x20	; 32
 234:	11 f4       	brne	.+4      	; 0x23a <encoder_proc+0x46>
 236:	01 96       	adiw	r24, 0x01	; 1
 238:	01 c0       	rjmp	.+2      	; 0x23c <encoder_proc+0x48>
 23a:	01 97       	sbiw	r24, 0x01	; 1
 23c:	90 93 10 01 	sts	0x0110, r25
 240:	80 93 0f 01 	sts	0x010F, r24
 244:	81 e0       	ldi	r24, 0x01	; 1
 246:	80 93 0e 01 	sts	0x010E, r24
 24a:	08 95       	ret

0000024c <mk_encoder_init>:
 24c:	85 b1       	in	r24, 0x05	; 5
 24e:	82 61       	ori	r24, 0x12	; 18
 250:	85 b9       	out	0x05, r24	; 5
 252:	0c 94 fa 00 	jmp	0x1f4	; 0x1f4 <encoder_proc>

00000256 <ENCODER_EVENT>:
 256:	0e 94 fa 00 	call	0x1f4	; 0x1f4 <encoder_proc>
 25a:	80 91 0e 01 	lds	r24, 0x010E
 25e:	88 23       	and	r24, r24
 260:	49 f0       	breq	.+18     	; 0x274 <ENCODER_EVENT+0x1e>
 262:	e0 91 04 01 	lds	r30, 0x0104
 266:	f0 91 05 01 	lds	r31, 0x0105
 26a:	30 97       	sbiw	r30, 0x00	; 0
 26c:	09 f0       	breq	.+2      	; 0x270 <ENCODER_EVENT+0x1a>
 26e:	09 95       	icall
 270:	10 92 0e 01 	sts	0x010E, r1
 274:	08 95       	ret

00000276 <long_click>:
 276:	88 eb       	ldi	r24, 0xB8	; 184
 278:	9b e0       	ldi	r25, 0x0B	; 11
 27a:	90 93 14 01 	sts	0x0114, r25
 27e:	80 93 13 01 	sts	0x0113, r24
 282:	80 91 01 01 	lds	r24, 0x0101
 286:	81 11       	cpse	r24, r1
 288:	06 c0       	rjmp	.+12     	; 0x296 <long_click+0x20>
 28a:	81 e0       	ldi	r24, 0x01	; 1
 28c:	80 93 01 01 	sts	0x0101, r24
 290:	2b 98       	cbi	0x05, 3	; 5
 292:	0c 94 87 00 	jmp	0x10e	; 0x10e <d_led_on>
 296:	83 30       	cpi	r24, 0x03	; 3
 298:	81 f4       	brne	.+32     	; 0x2ba <long_click+0x44>
 29a:	81 e0       	ldi	r24, 0x01	; 1
 29c:	80 93 01 01 	sts	0x0101, r24
 2a0:	2b 98       	cbi	0x05, 3	; 5
 2a2:	0e 94 87 00 	call	0x10e	; 0x10e <d_led_on>
 2a6:	10 92 0a 01 	sts	0x010A, r1
 2aa:	85 e0       	ldi	r24, 0x05	; 5
 2ac:	80 93 0b 01 	sts	0x010B, r24
 2b0:	10 92 0c 01 	sts	0x010C, r1
 2b4:	10 92 09 01 	sts	0x0109, r1
 2b8:	08 95       	ret
 2ba:	10 92 01 01 	sts	0x0101, r1
 2be:	08 95       	ret

000002c0 <fast_click>:
 2c0:	88 eb       	ldi	r24, 0xB8	; 184
 2c2:	9b e0       	ldi	r25, 0x0B	; 11
 2c4:	90 93 14 01 	sts	0x0114, r25
 2c8:	80 93 13 01 	sts	0x0113, r24
 2cc:	80 91 01 01 	lds	r24, 0x0101
 2d0:	88 23       	and	r24, r24
 2d2:	11 f0       	breq	.+4      	; 0x2d8 <fast_click+0x18>
 2d4:	83 30       	cpi	r24, 0x03	; 3
 2d6:	31 f4       	brne	.+12     	; 0x2e4 <fast_click+0x24>
 2d8:	81 e0       	ldi	r24, 0x01	; 1
 2da:	80 93 01 01 	sts	0x0101, r24
 2de:	2b 98       	cbi	0x05, 3	; 5
 2e0:	0c 94 87 00 	jmp	0x10e	; 0x10e <d_led_on>
 2e4:	81 30       	cpi	r24, 0x01	; 1
 2e6:	11 f4       	brne	.+4      	; 0x2ec <fast_click+0x2c>
 2e8:	82 e0       	ldi	r24, 0x02	; 2
 2ea:	03 c0       	rjmp	.+6      	; 0x2f2 <fast_click+0x32>
 2ec:	82 30       	cpi	r24, 0x02	; 2
 2ee:	19 f4       	brne	.+6      	; 0x2f6 <fast_click+0x36>
 2f0:	81 e0       	ldi	r24, 0x01	; 1
 2f2:	80 93 01 01 	sts	0x0101, r24
 2f6:	08 95       	ret

000002f8 <Beebing>:
 2f8:	80 91 07 01 	lds	r24, 0x0107
 2fc:	82 30       	cpi	r24, 0x02	; 2
 2fe:	f1 f0       	breq	.+60     	; 0x33c <Beebing+0x44>
 300:	2c f4       	brge	.+10     	; 0x30c <Beebing+0x14>
 302:	88 23       	and	r24, r24
 304:	49 f0       	breq	.+18     	; 0x318 <Beebing+0x20>
 306:	81 30       	cpi	r24, 0x01	; 1
 308:	49 f5       	brne	.+82     	; 0x35c <Beebing+0x64>
 30a:	0a c0       	rjmp	.+20     	; 0x320 <Beebing+0x28>
 30c:	84 30       	cpi	r24, 0x04	; 4
 30e:	b1 f0       	breq	.+44     	; 0x33c <Beebing+0x44>
 310:	8c f0       	brlt	.+34     	; 0x334 <Beebing+0x3c>
 312:	85 30       	cpi	r24, 0x05	; 5
 314:	19 f5       	brne	.+70     	; 0x35c <Beebing+0x64>
 316:	16 c0       	rjmp	.+44     	; 0x344 <Beebing+0x4c>
 318:	0e 94 87 00 	call	0x10e	; 0x10e <d_led_on>
 31c:	2b 9a       	sbi	0x05, 3	; 5
 31e:	03 c0       	rjmp	.+6      	; 0x326 <Beebing+0x2e>
 320:	0e 94 8d 00 	call	0x11a	; 0x11a <d_led_off>
 324:	2b 98       	cbi	0x05, 3	; 5
 326:	84 e1       	ldi	r24, 0x14	; 20
 328:	90 e0       	ldi	r25, 0x00	; 0
 32a:	90 93 12 01 	sts	0x0112, r25
 32e:	80 93 11 01 	sts	0x0111, r24
 332:	14 c0       	rjmp	.+40     	; 0x35c <Beebing+0x64>
 334:	2b 98       	cbi	0x05, 3	; 5
 336:	0e 94 8d 00 	call	0x11a	; 0x11a <d_led_off>
 33a:	f5 cf       	rjmp	.-22     	; 0x326 <Beebing+0x2e>
 33c:	2b 9a       	sbi	0x05, 3	; 5
 33e:	0e 94 87 00 	call	0x10e	; 0x10e <d_led_on>
 342:	f1 cf       	rjmp	.-30     	; 0x326 <Beebing+0x2e>
 344:	2b 98       	cbi	0x05, 3	; 5
 346:	0e 94 8d 00 	call	0x11a	; 0x11a <d_led_off>
 34a:	8c e3       	ldi	r24, 0x3C	; 60
 34c:	90 e0       	ldi	r25, 0x00	; 0
 34e:	90 93 12 01 	sts	0x0112, r25
 352:	80 93 11 01 	sts	0x0111, r24
 356:	8f ef       	ldi	r24, 0xFF	; 255
 358:	80 93 07 01 	sts	0x0107, r24
 35c:	80 91 07 01 	lds	r24, 0x0107
 360:	8f 5f       	subi	r24, 0xFF	; 255
 362:	80 93 07 01 	sts	0x0107, r24
 366:	08 95       	ret

00000368 <MinutesIncrement>:
 368:	80 91 0b 01 	lds	r24, 0x010B
 36c:	89 30       	cpi	r24, 0x09	; 9
 36e:	c0 f0       	brcs	.+48     	; 0x3a0 <MinutesIncrement+0x38>
 370:	10 92 0b 01 	sts	0x010B, r1
 374:	80 91 0a 01 	lds	r24, 0x010A
 378:	89 30       	cpi	r24, 0x09	; 9
 37a:	60 f0       	brcs	.+24     	; 0x394 <MinutesIncrement+0x2c>
 37c:	10 92 0a 01 	sts	0x010A, r1
 380:	80 91 09 01 	lds	r24, 0x0109
 384:	81 11       	cpse	r24, r1
 386:	11 c0       	rjmp	.+34     	; 0x3aa <MinutesIncrement+0x42>
 388:	80 91 0c 01 	lds	r24, 0x010C
 38c:	81 11       	cpse	r24, r1
 38e:	0d c0       	rjmp	.+26     	; 0x3aa <MinutesIncrement+0x42>
 390:	81 e0       	ldi	r24, 0x01	; 1
 392:	09 c0       	rjmp	.+18     	; 0x3a6 <MinutesIncrement+0x3e>
 394:	80 91 0a 01 	lds	r24, 0x010A
 398:	8f 5f       	subi	r24, 0xFF	; 255
 39a:	80 93 0a 01 	sts	0x010A, r24
 39e:	08 95       	ret
 3a0:	80 91 0b 01 	lds	r24, 0x010B
 3a4:	8f 5f       	subi	r24, 0xFF	; 255
 3a6:	80 93 0b 01 	sts	0x010B, r24
 3aa:	08 95       	ret

000003ac <SecondsIncrement>:
 3ac:	80 91 09 01 	lds	r24, 0x0109
 3b0:	89 30       	cpi	r24, 0x09	; 9
 3b2:	d0 f0       	brcs	.+52     	; 0x3e8 <SecondsIncrement+0x3c>
 3b4:	10 92 09 01 	sts	0x0109, r1
 3b8:	80 91 0c 01 	lds	r24, 0x010C
 3bc:	85 30       	cpi	r24, 0x05	; 5
 3be:	70 f0       	brcs	.+28     	; 0x3dc <SecondsIncrement+0x30>
 3c0:	10 92 0c 01 	sts	0x010C, r1
 3c4:	0e 94 b4 01 	call	0x368	; 0x368 <MinutesIncrement>
 3c8:	80 91 0a 01 	lds	r24, 0x010A
 3cc:	81 11       	cpse	r24, r1
 3ce:	11 c0       	rjmp	.+34     	; 0x3f2 <SecondsIncrement+0x46>
 3d0:	80 91 0b 01 	lds	r24, 0x010B
 3d4:	81 11       	cpse	r24, r1
 3d6:	0d c0       	rjmp	.+26     	; 0x3f2 <SecondsIncrement+0x46>
 3d8:	81 e0       	ldi	r24, 0x01	; 1
 3da:	09 c0       	rjmp	.+18     	; 0x3ee <SecondsIncrement+0x42>
 3dc:	80 91 0c 01 	lds	r24, 0x010C
 3e0:	8f 5f       	subi	r24, 0xFF	; 255
 3e2:	80 93 0c 01 	sts	0x010C, r24
 3e6:	08 95       	ret
 3e8:	80 91 09 01 	lds	r24, 0x0109
 3ec:	8f 5f       	subi	r24, 0xFF	; 255
 3ee:	80 93 09 01 	sts	0x0109, r24
 3f2:	08 95       	ret

000003f4 <MinutesDecrement>:
 3f4:	80 91 0b 01 	lds	r24, 0x010B
 3f8:	81 11       	cpse	r24, r1
 3fa:	0e c0       	rjmp	.+28     	; 0x418 <MinutesDecrement+0x24>
 3fc:	89 e0       	ldi	r24, 0x09	; 9
 3fe:	80 93 0b 01 	sts	0x010B, r24
 402:	90 91 0a 01 	lds	r25, 0x010A
 406:	91 11       	cpse	r25, r1
 408:	01 c0       	rjmp	.+2      	; 0x40c <MinutesDecrement+0x18>
 40a:	03 c0       	rjmp	.+6      	; 0x412 <MinutesDecrement+0x1e>
 40c:	80 91 0a 01 	lds	r24, 0x010A
 410:	81 50       	subi	r24, 0x01	; 1
 412:	80 93 0a 01 	sts	0x010A, r24
 416:	08 95       	ret
 418:	80 91 0b 01 	lds	r24, 0x010B
 41c:	81 50       	subi	r24, 0x01	; 1
 41e:	80 93 0b 01 	sts	0x010B, r24
 422:	80 91 0a 01 	lds	r24, 0x010A
 426:	81 11       	cpse	r24, r1
 428:	15 c0       	rjmp	.+42     	; 0x454 <MinutesDecrement+0x60>
 42a:	80 91 0b 01 	lds	r24, 0x010B
 42e:	81 11       	cpse	r24, r1
 430:	11 c0       	rjmp	.+34     	; 0x454 <MinutesDecrement+0x60>
 432:	80 91 0c 01 	lds	r24, 0x010C
 436:	81 11       	cpse	r24, r1
 438:	0d c0       	rjmp	.+26     	; 0x454 <MinutesDecrement+0x60>
 43a:	80 91 09 01 	lds	r24, 0x0109
 43e:	81 11       	cpse	r24, r1
 440:	09 c0       	rjmp	.+18     	; 0x454 <MinutesDecrement+0x60>
 442:	89 e0       	ldi	r24, 0x09	; 9
 444:	80 93 0a 01 	sts	0x010A, r24
 448:	80 93 0b 01 	sts	0x010B, r24
 44c:	10 92 0c 01 	sts	0x010C, r1
 450:	10 92 09 01 	sts	0x0109, r1
 454:	08 95       	ret

00000456 <SecondsDecrement>:
 456:	80 91 09 01 	lds	r24, 0x0109
 45a:	81 11       	cpse	r24, r1
 45c:	12 c0       	rjmp	.+36     	; 0x482 <SecondsDecrement+0x2c>
 45e:	89 e0       	ldi	r24, 0x09	; 9
 460:	80 93 09 01 	sts	0x0109, r24
 464:	80 91 0c 01 	lds	r24, 0x010C
 468:	81 11       	cpse	r24, r1
 46a:	05 c0       	rjmp	.+10     	; 0x476 <SecondsDecrement+0x20>
 46c:	85 e0       	ldi	r24, 0x05	; 5
 46e:	80 93 0c 01 	sts	0x010C, r24
 472:	0c 94 fa 01 	jmp	0x3f4	; 0x3f4 <MinutesDecrement>
 476:	80 91 0c 01 	lds	r24, 0x010C
 47a:	81 50       	subi	r24, 0x01	; 1
 47c:	80 93 0c 01 	sts	0x010C, r24
 480:	08 95       	ret
 482:	80 91 09 01 	lds	r24, 0x0109
 486:	81 50       	subi	r24, 0x01	; 1
 488:	80 93 09 01 	sts	0x0109, r24
 48c:	80 91 0a 01 	lds	r24, 0x010A
 490:	81 11       	cpse	r24, r1
 492:	19 c0       	rjmp	.+50     	; 0x4c6 <SecondsDecrement+0x70>
 494:	80 91 0b 01 	lds	r24, 0x010B
 498:	81 11       	cpse	r24, r1
 49a:	15 c0       	rjmp	.+42     	; 0x4c6 <SecondsDecrement+0x70>
 49c:	80 91 0c 01 	lds	r24, 0x010C
 4a0:	81 11       	cpse	r24, r1
 4a2:	11 c0       	rjmp	.+34     	; 0x4c6 <SecondsDecrement+0x70>
 4a4:	80 91 09 01 	lds	r24, 0x0109
 4a8:	81 11       	cpse	r24, r1
 4aa:	0d c0       	rjmp	.+26     	; 0x4c6 <SecondsDecrement+0x70>
 4ac:	80 91 01 01 	lds	r24, 0x0101
 4b0:	88 23       	and	r24, r24
 4b2:	49 f0       	breq	.+18     	; 0x4c6 <SecondsDecrement+0x70>
 4b4:	89 e0       	ldi	r24, 0x09	; 9
 4b6:	80 93 0a 01 	sts	0x010A, r24
 4ba:	80 93 0b 01 	sts	0x010B, r24
 4be:	10 92 0c 01 	sts	0x010C, r1
 4c2:	10 92 09 01 	sts	0x0109, r1
 4c6:	08 95       	ret

000004c8 <enco>:
 4c8:	88 eb       	ldi	r24, 0xB8	; 184
 4ca:	9b e0       	ldi	r25, 0x0B	; 11
 4cc:	90 93 14 01 	sts	0x0114, r25
 4d0:	80 93 13 01 	sts	0x0113, r24
 4d4:	2b 9a       	sbi	0x05, 3	; 5
 4d6:	86 e6       	ldi	r24, 0x66	; 102
 4d8:	90 e2       	ldi	r25, 0x20	; 32
 4da:	01 97       	sbiw	r24, 0x01	; 1
 4dc:	f1 f7       	brne	.-4      	; 0x4da <enco+0x12>
 4de:	00 00       	nop
 4e0:	2b 98       	cbi	0x05, 3	; 5
 4e2:	80 91 01 01 	lds	r24, 0x0101
 4e6:	83 30       	cpi	r24, 0x03	; 3
 4e8:	29 f4       	brne	.+10     	; 0x4f4 <enco+0x2c>
 4ea:	81 e0       	ldi	r24, 0x01	; 1
 4ec:	80 93 01 01 	sts	0x0101, r24
 4f0:	0e 94 87 00 	call	0x10e	; 0x10e <d_led_on>
 4f4:	90 91 0d 01 	lds	r25, 0x010D
 4f8:	80 91 01 01 	lds	r24, 0x0101
 4fc:	90 32       	cpi	r25, 0x20	; 32
 4fe:	41 f4       	brne	.+16     	; 0x510 <enco+0x48>
 500:	82 30       	cpi	r24, 0x02	; 2
 502:	10 f4       	brcc	.+4      	; 0x508 <enco+0x40>
 504:	0c 94 b4 01 	jmp	0x368	; 0x368 <MinutesIncrement>
 508:	82 30       	cpi	r24, 0x02	; 2
 50a:	51 f4       	brne	.+20     	; 0x520 <enco+0x58>
 50c:	0c 94 d6 01 	jmp	0x3ac	; 0x3ac <SecondsIncrement>
 510:	82 30       	cpi	r24, 0x02	; 2
 512:	10 f4       	brcc	.+4      	; 0x518 <enco+0x50>
 514:	0c 94 fa 01 	jmp	0x3f4	; 0x3f4 <MinutesDecrement>
 518:	82 30       	cpi	r24, 0x02	; 2
 51a:	11 f4       	brne	.+4      	; 0x520 <enco+0x58>
 51c:	0c 94 2b 02 	jmp	0x456	; 0x456 <SecondsDecrement>
 520:	08 95       	ret

00000522 <cutDown>:
 522:	80 91 08 01 	lds	r24, 0x0108
 526:	82 30       	cpi	r24, 0x02	; 2
 528:	20 f0       	brcs	.+8      	; 0x532 <cutDown+0x10>
 52a:	0e 94 2b 02 	call	0x456	; 0x456 <SecondsDecrement>
 52e:	10 92 08 01 	sts	0x0108, r1
 532:	80 91 0a 01 	lds	r24, 0x010A
 536:	81 11       	cpse	r24, r1
 538:	15 c0       	rjmp	.+42     	; 0x564 <cutDown+0x42>
 53a:	80 91 0b 01 	lds	r24, 0x010B
 53e:	81 11       	cpse	r24, r1
 540:	11 c0       	rjmp	.+34     	; 0x564 <cutDown+0x42>
 542:	80 91 0c 01 	lds	r24, 0x010C
 546:	81 11       	cpse	r24, r1
 548:	0d c0       	rjmp	.+26     	; 0x564 <cutDown+0x42>
 54a:	80 91 09 01 	lds	r24, 0x0109
 54e:	81 11       	cpse	r24, r1
 550:	09 c0       	rjmp	.+18     	; 0x564 <cutDown+0x42>
 552:	88 eb       	ldi	r24, 0xB8	; 184
 554:	9b e0       	ldi	r25, 0x0B	; 11
 556:	90 93 14 01 	sts	0x0114, r25
 55a:	80 93 13 01 	sts	0x0113, r24
 55e:	83 e0       	ldi	r24, 0x03	; 3
 560:	80 93 01 01 	sts	0x0101, r24
 564:	80 91 08 01 	lds	r24, 0x0108
 568:	8f 5f       	subi	r24, 0xFF	; 255
 56a:	80 93 08 01 	sts	0x0108, r24
 56e:	08 95       	ret

00000570 <SuperDebounce>:
 570:	bf 92       	push	r11
 572:	cf 92       	push	r12
 574:	df 92       	push	r13
 576:	ef 92       	push	r14
 578:	ff 92       	push	r15
 57a:	0f 93       	push	r16
 57c:	1f 93       	push	r17
 57e:	cf 93       	push	r28
 580:	df 93       	push	r29
 582:	ec 01       	movw	r28, r24
 584:	21 15       	cp	r18, r1
 586:	31 05       	cpc	r19, r1
 588:	11 f4       	brne	.+4      	; 0x58e <SuperDebounce+0x1e>
 58a:	24 e1       	ldi	r18, 0x14	; 20
 58c:	30 e0       	ldi	r19, 0x00	; 0
 58e:	01 15       	cp	r16, r1
 590:	11 05       	cpc	r17, r1
 592:	11 f4       	brne	.+4      	; 0x598 <SuperDebounce+0x28>
 594:	06 e9       	ldi	r16, 0x96	; 150
 596:	10 e0       	ldi	r17, 0x00	; 0
 598:	fb 01       	movw	r30, r22
 59a:	90 81       	ld	r25, Z
 59c:	94 23       	and	r25, r20
 59e:	bb 24       	eor	r11, r11
 5a0:	b3 94       	inc	r11
 5a2:	88 81       	ld	r24, Y
 5a4:	99 23       	and	r25, r25
 5a6:	11 f0       	breq	.+4      	; 0x5ac <SuperDebounce+0x3c>
 5a8:	b1 2c       	mov	r11, r1
 5aa:	06 c0       	rjmp	.+12     	; 0x5b8 <SuperDebounce+0x48>
 5ac:	81 11       	cpse	r24, r1
 5ae:	04 c0       	rjmp	.+8      	; 0x5b8 <SuperDebounce+0x48>
 5b0:	b8 82       	st	Y, r11
 5b2:	8f e0       	ldi	r24, 0x0F	; 15
 5b4:	90 e0       	ldi	r25, 0x00	; 0
 5b6:	12 c0       	rjmp	.+36     	; 0x5dc <SuperDebounce+0x6c>
 5b8:	88 23       	and	r24, r24
 5ba:	09 f4       	brne	.+2      	; 0x5be <SuperDebounce+0x4e>
 5bc:	4b c0       	rjmp	.+150    	; 0x654 <SuperDebounce+0xe4>
 5be:	bb 20       	and	r11, r11
 5c0:	91 f0       	breq	.+36     	; 0x5e6 <SuperDebounce+0x76>
 5c2:	81 30       	cpi	r24, 0x01	; 1
 5c4:	d9 f4       	brne	.+54     	; 0x5fc <SuperDebounce+0x8c>
 5c6:	80 91 19 01 	lds	r24, 0x0119
 5ca:	90 91 1a 01 	lds	r25, 0x011A
 5ce:	89 2b       	or	r24, r25
 5d0:	09 f0       	breq	.+2      	; 0x5d4 <SuperDebounce+0x64>
 5d2:	40 c0       	rjmp	.+128    	; 0x654 <SuperDebounce+0xe4>
 5d4:	82 e0       	ldi	r24, 0x02	; 2
 5d6:	88 83       	st	Y, r24
 5d8:	85 e0       	ldi	r24, 0x05	; 5
 5da:	90 e0       	ldi	r25, 0x00	; 0
 5dc:	90 93 1a 01 	sts	0x011A, r25
 5e0:	80 93 19 01 	sts	0x0119, r24
 5e4:	37 c0       	rjmp	.+110    	; 0x654 <SuperDebounce+0xe4>
 5e6:	82 30       	cpi	r24, 0x02	; 2
 5e8:	a8 f1       	brcs	.+106    	; 0x654 <SuperDebounce+0xe4>
 5ea:	84 30       	cpi	r24, 0x04	; 4
 5ec:	98 f5       	brcc	.+102    	; 0x654 <SuperDebounce+0xe4>
 5ee:	e1 14       	cp	r14, r1
 5f0:	f1 04       	cpc	r15, r1
 5f2:	11 f0       	breq	.+4      	; 0x5f8 <SuperDebounce+0x88>
 5f4:	f7 01       	movw	r30, r14
 5f6:	09 95       	icall
 5f8:	18 82       	st	Y, r1
 5fa:	2c c0       	rjmp	.+88     	; 0x654 <SuperDebounce+0xe4>
 5fc:	82 30       	cpi	r24, 0x02	; 2
 5fe:	69 f4       	brne	.+26     	; 0x61a <SuperDebounce+0xaa>
 600:	80 91 19 01 	lds	r24, 0x0119
 604:	90 91 1a 01 	lds	r25, 0x011A
 608:	89 2b       	or	r24, r25
 60a:	21 f5       	brne	.+72     	; 0x654 <SuperDebounce+0xe4>
 60c:	83 e0       	ldi	r24, 0x03	; 3
 60e:	88 83       	st	Y, r24
 610:	10 93 1a 01 	sts	0x011A, r17
 614:	00 93 19 01 	sts	0x0119, r16
 618:	1d c0       	rjmp	.+58     	; 0x654 <SuperDebounce+0xe4>
 61a:	83 30       	cpi	r24, 0x03	; 3
 61c:	41 f4       	brne	.+16     	; 0x62e <SuperDebounce+0xbe>
 61e:	80 91 19 01 	lds	r24, 0x0119
 622:	90 91 1a 01 	lds	r25, 0x011A
 626:	89 2b       	or	r24, r25
 628:	a9 f4       	brne	.+42     	; 0x654 <SuperDebounce+0xe4>
 62a:	84 e0       	ldi	r24, 0x04	; 4
 62c:	12 c0       	rjmp	.+36     	; 0x652 <SuperDebounce+0xe2>
 62e:	84 30       	cpi	r24, 0x04	; 4
 630:	89 f4       	brne	.+34     	; 0x654 <SuperDebounce+0xe4>
 632:	80 91 19 01 	lds	r24, 0x0119
 636:	90 91 1a 01 	lds	r25, 0x011A
 63a:	89 2b       	or	r24, r25
 63c:	59 f4       	brne	.+22     	; 0x654 <SuperDebounce+0xe4>
 63e:	30 93 1a 01 	sts	0x011A, r19
 642:	20 93 19 01 	sts	0x0119, r18
 646:	c1 14       	cp	r12, r1
 648:	d1 04       	cpc	r13, r1
 64a:	11 f0       	breq	.+4      	; 0x650 <SuperDebounce+0xe0>
 64c:	f6 01       	movw	r30, r12
 64e:	09 95       	icall
 650:	85 e0       	ldi	r24, 0x05	; 5
 652:	88 83       	st	Y, r24
 654:	88 81       	ld	r24, Y
 656:	83 30       	cpi	r24, 0x03	; 3
 658:	18 f0       	brcs	.+6      	; 0x660 <SuperDebounce+0xf0>
 65a:	b1 10       	cpse	r11, r1
 65c:	01 c0       	rjmp	.+2      	; 0x660 <SuperDebounce+0xf0>
 65e:	18 82       	st	Y, r1
 660:	df 91       	pop	r29
 662:	cf 91       	pop	r28
 664:	1f 91       	pop	r17
 666:	0f 91       	pop	r16
 668:	ff 90       	pop	r15
 66a:	ef 90       	pop	r14
 66c:	df 90       	pop	r13
 66e:	cf 90       	pop	r12
 670:	bf 90       	pop	r11
 672:	08 95       	ret

00000674 <StartUp>:
 674:	2d 9a       	sbi	0x05, 5	; 5
 676:	8a e0       	ldi	r24, 0x0A	; 10
 678:	80 93 0a 01 	sts	0x010A, r24
 67c:	80 93 0b 01 	sts	0x010B, r24
 680:	80 93 0c 01 	sts	0x010C, r24
 684:	80 93 09 01 	sts	0x0109, r24
 688:	9b e0       	ldi	r25, 0x0B	; 11
 68a:	90 93 0a 01 	sts	0x010A, r25
 68e:	90 93 0b 01 	sts	0x010B, r25
 692:	90 93 0c 01 	sts	0x010C, r25
 696:	90 93 09 01 	sts	0x0109, r25
 69a:	22 e3       	ldi	r18, 0x32	; 50
 69c:	33 eb       	ldi	r19, 0xB3	; 179
 69e:	42 e0       	ldi	r20, 0x02	; 2
 6a0:	21 50       	subi	r18, 0x01	; 1
 6a2:	30 40       	sbci	r19, 0x00	; 0
 6a4:	40 40       	sbci	r20, 0x00	; 0
 6a6:	e1 f7       	brne	.-8      	; 0x6a0 <StartUp+0x2c>
 6a8:	00 c0       	rjmp	.+0      	; 0x6aa <StartUp+0x36>
 6aa:	00 c0       	rjmp	.+0      	; 0x6ac <StartUp+0x38>
 6ac:	2c e0       	ldi	r18, 0x0C	; 12
 6ae:	20 93 0a 01 	sts	0x010A, r18
 6b2:	20 93 0b 01 	sts	0x010B, r18
 6b6:	20 93 0c 01 	sts	0x010C, r18
 6ba:	20 93 09 01 	sts	0x0109, r18
 6be:	52 e3       	ldi	r21, 0x32	; 50
 6c0:	63 eb       	ldi	r22, 0xB3	; 179
 6c2:	32 e0       	ldi	r19, 0x02	; 2
 6c4:	51 50       	subi	r21, 0x01	; 1
 6c6:	60 40       	sbci	r22, 0x00	; 0
 6c8:	30 40       	sbci	r19, 0x00	; 0
 6ca:	e1 f7       	brne	.-8      	; 0x6c4 <StartUp+0x50>
 6cc:	00 c0       	rjmp	.+0      	; 0x6ce <StartUp+0x5a>
 6ce:	00 c0       	rjmp	.+0      	; 0x6d0 <StartUp+0x5c>
 6d0:	3d e0       	ldi	r19, 0x0D	; 13
 6d2:	30 93 0a 01 	sts	0x010A, r19
 6d6:	30 93 0b 01 	sts	0x010B, r19
 6da:	30 93 0c 01 	sts	0x010C, r19
 6de:	30 93 09 01 	sts	0x0109, r19
 6e2:	42 e3       	ldi	r20, 0x32	; 50
 6e4:	53 eb       	ldi	r21, 0xB3	; 179
 6e6:	62 e0       	ldi	r22, 0x02	; 2
 6e8:	41 50       	subi	r20, 0x01	; 1
 6ea:	50 40       	sbci	r21, 0x00	; 0
 6ec:	60 40       	sbci	r22, 0x00	; 0
 6ee:	e1 f7       	brne	.-8      	; 0x6e8 <StartUp+0x74>
 6f0:	00 c0       	rjmp	.+0      	; 0x6f2 <StartUp+0x7e>
 6f2:	00 c0       	rjmp	.+0      	; 0x6f4 <StartUp+0x80>
 6f4:	20 93 0a 01 	sts	0x010A, r18
 6f8:	20 93 0b 01 	sts	0x010B, r18
 6fc:	20 93 0c 01 	sts	0x010C, r18
 700:	20 93 09 01 	sts	0x0109, r18
 704:	22 e3       	ldi	r18, 0x32	; 50
 706:	33 eb       	ldi	r19, 0xB3	; 179
 708:	42 e0       	ldi	r20, 0x02	; 2
 70a:	21 50       	subi	r18, 0x01	; 1
 70c:	30 40       	sbci	r19, 0x00	; 0
 70e:	40 40       	sbci	r20, 0x00	; 0
 710:	e1 f7       	brne	.-8      	; 0x70a <StartUp+0x96>
 712:	00 c0       	rjmp	.+0      	; 0x714 <StartUp+0xa0>
 714:	00 c0       	rjmp	.+0      	; 0x716 <StartUp+0xa2>
 716:	90 93 0a 01 	sts	0x010A, r25
 71a:	90 93 0b 01 	sts	0x010B, r25
 71e:	90 93 0c 01 	sts	0x010C, r25
 722:	90 93 09 01 	sts	0x0109, r25
 726:	52 e3       	ldi	r21, 0x32	; 50
 728:	63 eb       	ldi	r22, 0xB3	; 179
 72a:	22 e0       	ldi	r18, 0x02	; 2
 72c:	51 50       	subi	r21, 0x01	; 1
 72e:	60 40       	sbci	r22, 0x00	; 0
 730:	20 40       	sbci	r18, 0x00	; 0
 732:	e1 f7       	brne	.-8      	; 0x72c <StartUp+0xb8>
 734:	00 c0       	rjmp	.+0      	; 0x736 <StartUp+0xc2>
 736:	00 c0       	rjmp	.+0      	; 0x738 <StartUp+0xc4>
 738:	80 93 0a 01 	sts	0x010A, r24
 73c:	80 93 0b 01 	sts	0x010B, r24
 740:	80 93 0c 01 	sts	0x010C, r24
 744:	80 93 09 01 	sts	0x0109, r24
 748:	32 e3       	ldi	r19, 0x32	; 50
 74a:	43 eb       	ldi	r20, 0xB3	; 179
 74c:	52 e0       	ldi	r21, 0x02	; 2
 74e:	31 50       	subi	r19, 0x01	; 1
 750:	40 40       	sbci	r20, 0x00	; 0
 752:	50 40       	sbci	r21, 0x00	; 0
 754:	e1 f7       	brne	.-8      	; 0x74e <StartUp+0xda>
 756:	00 c0       	rjmp	.+0      	; 0x758 <StartUp+0xe4>
 758:	00 c0       	rjmp	.+0      	; 0x75a <StartUp+0xe6>
 75a:	36 e1       	ldi	r19, 0x16	; 22
 75c:	30 93 0a 01 	sts	0x010A, r19
 760:	80 93 0b 01 	sts	0x010B, r24
 764:	80 93 0c 01 	sts	0x010C, r24
 768:	80 93 09 01 	sts	0x0109, r24
 76c:	62 e3       	ldi	r22, 0x32	; 50
 76e:	23 eb       	ldi	r18, 0xB3	; 179
 770:	42 e0       	ldi	r20, 0x02	; 2
 772:	61 50       	subi	r22, 0x01	; 1
 774:	20 40       	sbci	r18, 0x00	; 0
 776:	40 40       	sbci	r20, 0x00	; 0
 778:	e1 f7       	brne	.-8      	; 0x772 <StartUp+0xfe>
 77a:	00 c0       	rjmp	.+0      	; 0x77c <StartUp+0x108>
 77c:	00 c0       	rjmp	.+0      	; 0x77e <StartUp+0x10a>
 77e:	28 e1       	ldi	r18, 0x18	; 24
 780:	20 93 0a 01 	sts	0x010A, r18
 784:	80 93 0b 01 	sts	0x010B, r24
 788:	80 93 0c 01 	sts	0x010C, r24
 78c:	80 93 09 01 	sts	0x0109, r24
 790:	52 e3       	ldi	r21, 0x32	; 50
 792:	63 eb       	ldi	r22, 0xB3	; 179
 794:	42 e0       	ldi	r20, 0x02	; 2
 796:	51 50       	subi	r21, 0x01	; 1
 798:	60 40       	sbci	r22, 0x00	; 0
 79a:	40 40       	sbci	r20, 0x00	; 0
 79c:	e1 f7       	brne	.-8      	; 0x796 <StartUp+0x122>
 79e:	00 c0       	rjmp	.+0      	; 0x7a0 <StartUp+0x12c>
 7a0:	00 c0       	rjmp	.+0      	; 0x7a2 <StartUp+0x12e>
 7a2:	80 93 0a 01 	sts	0x010A, r24
 7a6:	30 93 0b 01 	sts	0x010B, r19
 7aa:	80 93 0c 01 	sts	0x010C, r24
 7ae:	80 93 09 01 	sts	0x0109, r24
 7b2:	52 e3       	ldi	r21, 0x32	; 50
 7b4:	63 eb       	ldi	r22, 0xB3	; 179
 7b6:	42 e0       	ldi	r20, 0x02	; 2
 7b8:	51 50       	subi	r21, 0x01	; 1
 7ba:	60 40       	sbci	r22, 0x00	; 0
 7bc:	40 40       	sbci	r20, 0x00	; 0
 7be:	e1 f7       	brne	.-8      	; 0x7b8 <StartUp+0x144>
 7c0:	00 c0       	rjmp	.+0      	; 0x7c2 <StartUp+0x14e>
 7c2:	00 c0       	rjmp	.+0      	; 0x7c4 <StartUp+0x150>
 7c4:	80 93 0a 01 	sts	0x010A, r24
 7c8:	20 93 0b 01 	sts	0x010B, r18
 7cc:	80 93 0c 01 	sts	0x010C, r24
 7d0:	80 93 09 01 	sts	0x0109, r24
 7d4:	52 e3       	ldi	r21, 0x32	; 50
 7d6:	63 eb       	ldi	r22, 0xB3	; 179
 7d8:	42 e0       	ldi	r20, 0x02	; 2
 7da:	51 50       	subi	r21, 0x01	; 1
 7dc:	60 40       	sbci	r22, 0x00	; 0
 7de:	40 40       	sbci	r20, 0x00	; 0
 7e0:	e1 f7       	brne	.-8      	; 0x7da <StartUp+0x166>
 7e2:	00 c0       	rjmp	.+0      	; 0x7e4 <StartUp+0x170>
 7e4:	00 c0       	rjmp	.+0      	; 0x7e6 <StartUp+0x172>
 7e6:	80 93 0a 01 	sts	0x010A, r24
 7ea:	80 93 0b 01 	sts	0x010B, r24
 7ee:	30 93 0c 01 	sts	0x010C, r19
 7f2:	80 93 09 01 	sts	0x0109, r24
 7f6:	52 e3       	ldi	r21, 0x32	; 50
 7f8:	63 eb       	ldi	r22, 0xB3	; 179
 7fa:	42 e0       	ldi	r20, 0x02	; 2
 7fc:	51 50       	subi	r21, 0x01	; 1
 7fe:	60 40       	sbci	r22, 0x00	; 0
 800:	40 40       	sbci	r20, 0x00	; 0
 802:	e1 f7       	brne	.-8      	; 0x7fc <StartUp+0x188>
 804:	00 c0       	rjmp	.+0      	; 0x806 <StartUp+0x192>
 806:	00 c0       	rjmp	.+0      	; 0x808 <StartUp+0x194>
 808:	80 93 0a 01 	sts	0x010A, r24
 80c:	80 93 0b 01 	sts	0x010B, r24
 810:	20 93 0c 01 	sts	0x010C, r18
 814:	80 93 09 01 	sts	0x0109, r24
 818:	52 e3       	ldi	r21, 0x32	; 50
 81a:	63 eb       	ldi	r22, 0xB3	; 179
 81c:	42 e0       	ldi	r20, 0x02	; 2
 81e:	51 50       	subi	r21, 0x01	; 1
 820:	60 40       	sbci	r22, 0x00	; 0
 822:	40 40       	sbci	r20, 0x00	; 0
 824:	e1 f7       	brne	.-8      	; 0x81e <StartUp+0x1aa>
 826:	00 c0       	rjmp	.+0      	; 0x828 <StartUp+0x1b4>
 828:	00 c0       	rjmp	.+0      	; 0x82a <StartUp+0x1b6>
 82a:	80 93 0a 01 	sts	0x010A, r24
 82e:	80 93 0b 01 	sts	0x010B, r24
 832:	80 93 0c 01 	sts	0x010C, r24
 836:	30 93 09 01 	sts	0x0109, r19
 83a:	52 e3       	ldi	r21, 0x32	; 50
 83c:	63 eb       	ldi	r22, 0xB3	; 179
 83e:	32 e0       	ldi	r19, 0x02	; 2
 840:	51 50       	subi	r21, 0x01	; 1
 842:	60 40       	sbci	r22, 0x00	; 0
 844:	30 40       	sbci	r19, 0x00	; 0
 846:	e1 f7       	brne	.-8      	; 0x840 <StartUp+0x1cc>
 848:	00 c0       	rjmp	.+0      	; 0x84a <StartUp+0x1d6>
 84a:	00 c0       	rjmp	.+0      	; 0x84c <StartUp+0x1d8>
 84c:	80 93 0a 01 	sts	0x010A, r24
 850:	80 93 0b 01 	sts	0x010B, r24
 854:	80 93 0c 01 	sts	0x010C, r24
 858:	20 93 09 01 	sts	0x0109, r18
 85c:	42 e3       	ldi	r20, 0x32	; 50
 85e:	53 eb       	ldi	r21, 0xB3	; 179
 860:	62 e0       	ldi	r22, 0x02	; 2
 862:	41 50       	subi	r20, 0x01	; 1
 864:	50 40       	sbci	r21, 0x00	; 0
 866:	60 40       	sbci	r22, 0x00	; 0
 868:	e1 f7       	brne	.-8      	; 0x862 <StartUp+0x1ee>
 86a:	00 c0       	rjmp	.+0      	; 0x86c <StartUp+0x1f8>
 86c:	00 c0       	rjmp	.+0      	; 0x86e <StartUp+0x1fa>
 86e:	80 93 0a 01 	sts	0x010A, r24
 872:	80 93 0b 01 	sts	0x010B, r24
 876:	80 93 0c 01 	sts	0x010C, r24
 87a:	80 93 09 01 	sts	0x0109, r24
 87e:	82 e3       	ldi	r24, 0x32	; 50
 880:	23 eb       	ldi	r18, 0xB3	; 179
 882:	32 e0       	ldi	r19, 0x02	; 2
 884:	81 50       	subi	r24, 0x01	; 1
 886:	20 40       	sbci	r18, 0x00	; 0
 888:	30 40       	sbci	r19, 0x00	; 0
 88a:	e1 f7       	brne	.-8      	; 0x884 <StartUp+0x210>
 88c:	00 c0       	rjmp	.+0      	; 0x88e <StartUp+0x21a>
 88e:	00 c0       	rjmp	.+0      	; 0x890 <StartUp+0x21c>
 890:	90 93 0a 01 	sts	0x010A, r25
 894:	42 e3       	ldi	r20, 0x32	; 50
 896:	53 eb       	ldi	r21, 0xB3	; 179
 898:	62 e0       	ldi	r22, 0x02	; 2
 89a:	41 50       	subi	r20, 0x01	; 1
 89c:	50 40       	sbci	r21, 0x00	; 0
 89e:	60 40       	sbci	r22, 0x00	; 0
 8a0:	e1 f7       	brne	.-8      	; 0x89a <StartUp+0x226>
 8a2:	00 c0       	rjmp	.+0      	; 0x8a4 <StartUp+0x230>
 8a4:	00 c0       	rjmp	.+0      	; 0x8a6 <StartUp+0x232>
 8a6:	90 93 0b 01 	sts	0x010B, r25
 8aa:	82 e3       	ldi	r24, 0x32	; 50
 8ac:	23 eb       	ldi	r18, 0xB3	; 179
 8ae:	32 e0       	ldi	r19, 0x02	; 2
 8b0:	81 50       	subi	r24, 0x01	; 1
 8b2:	20 40       	sbci	r18, 0x00	; 0
 8b4:	30 40       	sbci	r19, 0x00	; 0
 8b6:	e1 f7       	brne	.-8      	; 0x8b0 <StartUp+0x23c>
 8b8:	00 c0       	rjmp	.+0      	; 0x8ba <StartUp+0x246>
 8ba:	00 c0       	rjmp	.+0      	; 0x8bc <StartUp+0x248>
 8bc:	90 93 0c 01 	sts	0x010C, r25
 8c0:	42 e3       	ldi	r20, 0x32	; 50
 8c2:	53 eb       	ldi	r21, 0xB3	; 179
 8c4:	62 e0       	ldi	r22, 0x02	; 2
 8c6:	41 50       	subi	r20, 0x01	; 1
 8c8:	50 40       	sbci	r21, 0x00	; 0
 8ca:	60 40       	sbci	r22, 0x00	; 0
 8cc:	e1 f7       	brne	.-8      	; 0x8c6 <StartUp+0x252>
 8ce:	00 c0       	rjmp	.+0      	; 0x8d0 <StartUp+0x25c>
 8d0:	00 c0       	rjmp	.+0      	; 0x8d2 <StartUp+0x25e>
 8d2:	90 93 09 01 	sts	0x0109, r25
 8d6:	82 e3       	ldi	r24, 0x32	; 50
 8d8:	93 eb       	ldi	r25, 0xB3	; 179
 8da:	22 e0       	ldi	r18, 0x02	; 2
 8dc:	81 50       	subi	r24, 0x01	; 1
 8de:	90 40       	sbci	r25, 0x00	; 0
 8e0:	20 40       	sbci	r18, 0x00	; 0
 8e2:	e1 f7       	brne	.-8      	; 0x8dc <StartUp+0x268>
 8e4:	00 c0       	rjmp	.+0      	; 0x8e6 <StartUp+0x272>
 8e6:	00 c0       	rjmp	.+0      	; 0x8e8 <StartUp+0x274>
 8e8:	80 e1       	ldi	r24, 0x10	; 16
 8ea:	80 93 09 01 	sts	0x0109, r24
 8ee:	32 e3       	ldi	r19, 0x32	; 50
 8f0:	43 eb       	ldi	r20, 0xB3	; 179
 8f2:	52 e0       	ldi	r21, 0x02	; 2
 8f4:	31 50       	subi	r19, 0x01	; 1
 8f6:	40 40       	sbci	r20, 0x00	; 0
 8f8:	50 40       	sbci	r21, 0x00	; 0
 8fa:	e1 f7       	brne	.-8      	; 0x8f4 <StartUp+0x280>
 8fc:	00 c0       	rjmp	.+0      	; 0x8fe <StartUp+0x28a>
 8fe:	00 c0       	rjmp	.+0      	; 0x900 <__stack+0x1>
 900:	81 e1       	ldi	r24, 0x11	; 17
 902:	80 93 09 01 	sts	0x0109, r24
 906:	62 e3       	ldi	r22, 0x32	; 50
 908:	83 eb       	ldi	r24, 0xB3	; 179
 90a:	92 e0       	ldi	r25, 0x02	; 2
 90c:	61 50       	subi	r22, 0x01	; 1
 90e:	80 40       	sbci	r24, 0x00	; 0
 910:	90 40       	sbci	r25, 0x00	; 0
 912:	e1 f7       	brne	.-8      	; 0x90c <__stack+0xd>
 914:	00 c0       	rjmp	.+0      	; 0x916 <__stack+0x17>
 916:	00 c0       	rjmp	.+0      	; 0x918 <__stack+0x19>
 918:	82 e1       	ldi	r24, 0x12	; 18
 91a:	80 93 09 01 	sts	0x0109, r24
 91e:	22 e3       	ldi	r18, 0x32	; 50
 920:	33 eb       	ldi	r19, 0xB3	; 179
 922:	42 e0       	ldi	r20, 0x02	; 2
 924:	21 50       	subi	r18, 0x01	; 1
 926:	30 40       	sbci	r19, 0x00	; 0
 928:	40 40       	sbci	r20, 0x00	; 0
 92a:	e1 f7       	brne	.-8      	; 0x924 <__stack+0x25>
 92c:	00 c0       	rjmp	.+0      	; 0x92e <__stack+0x2f>
 92e:	00 c0       	rjmp	.+0      	; 0x930 <__stack+0x31>
 930:	89 e1       	ldi	r24, 0x19	; 25
 932:	80 93 0c 01 	sts	0x010C, r24
 936:	52 e3       	ldi	r21, 0x32	; 50
 938:	63 eb       	ldi	r22, 0xB3	; 179
 93a:	92 e0       	ldi	r25, 0x02	; 2
 93c:	51 50       	subi	r21, 0x01	; 1
 93e:	60 40       	sbci	r22, 0x00	; 0
 940:	90 40       	sbci	r25, 0x00	; 0
 942:	e1 f7       	brne	.-8      	; 0x93c <__stack+0x3d>
 944:	00 c0       	rjmp	.+0      	; 0x946 <__stack+0x47>
 946:	00 c0       	rjmp	.+0      	; 0x948 <__stack+0x49>
 948:	80 93 0b 01 	sts	0x010B, r24
 94c:	22 e3       	ldi	r18, 0x32	; 50
 94e:	33 eb       	ldi	r19, 0xB3	; 179
 950:	42 e0       	ldi	r20, 0x02	; 2
 952:	21 50       	subi	r18, 0x01	; 1
 954:	30 40       	sbci	r19, 0x00	; 0
 956:	40 40       	sbci	r20, 0x00	; 0
 958:	e1 f7       	brne	.-8      	; 0x952 <__stack+0x53>
 95a:	00 c0       	rjmp	.+0      	; 0x95c <__stack+0x5d>
 95c:	00 c0       	rjmp	.+0      	; 0x95e <__stack+0x5f>
 95e:	80 93 0a 01 	sts	0x010A, r24
 962:	52 e3       	ldi	r21, 0x32	; 50
 964:	63 eb       	ldi	r22, 0xB3	; 179
 966:	82 e0       	ldi	r24, 0x02	; 2
 968:	51 50       	subi	r21, 0x01	; 1
 96a:	60 40       	sbci	r22, 0x00	; 0
 96c:	80 40       	sbci	r24, 0x00	; 0
 96e:	e1 f7       	brne	.-8      	; 0x968 <__stack+0x69>
 970:	00 c0       	rjmp	.+0      	; 0x972 <__stack+0x73>
 972:	00 c0       	rjmp	.+0      	; 0x974 <__stack+0x75>
 974:	8a e1       	ldi	r24, 0x1A	; 26
 976:	80 93 0a 01 	sts	0x010A, r24
 97a:	92 e3       	ldi	r25, 0x32	; 50
 97c:	23 eb       	ldi	r18, 0xB3	; 179
 97e:	32 e0       	ldi	r19, 0x02	; 2
 980:	91 50       	subi	r25, 0x01	; 1
 982:	20 40       	sbci	r18, 0x00	; 0
 984:	30 40       	sbci	r19, 0x00	; 0
 986:	e1 f7       	brne	.-8      	; 0x980 <__stack+0x81>
 988:	00 c0       	rjmp	.+0      	; 0x98a <__stack+0x8b>
 98a:	00 c0       	rjmp	.+0      	; 0x98c <__stack+0x8d>
 98c:	85 e1       	ldi	r24, 0x15	; 21
 98e:	80 93 0a 01 	sts	0x010A, r24
 992:	08 95       	ret

00000994 <main>:
 994:	0e 94 70 00 	call	0xe0	; 0xe0 <d_led_init>
 998:	0e 94 26 01 	call	0x24c	; 0x24c <mk_encoder_init>
 99c:	84 e6       	ldi	r24, 0x64	; 100
 99e:	92 e0       	ldi	r25, 0x02	; 2
 9a0:	0e 94 e4 00 	call	0x1c8	; 0x1c8 <register_enc_event_callback>
 9a4:	23 9a       	sbi	0x04, 3	; 4
 9a6:	22 98       	cbi	0x04, 2	; 4
 9a8:	2a 9a       	sbi	0x05, 2	; 5
 9aa:	80 91 b0 00 	lds	r24, 0x00B0
 9ae:	82 60       	ori	r24, 0x02	; 2
 9b0:	80 93 b0 00 	sts	0x00B0, r24
 9b4:	80 91 b1 00 	lds	r24, 0x00B1
 9b8:	87 60       	ori	r24, 0x07	; 7
 9ba:	80 93 b1 00 	sts	0x00B1, r24
 9be:	8b e6       	ldi	r24, 0x6B	; 107
 9c0:	80 93 b3 00 	sts	0x00B3, r24
 9c4:	80 91 70 00 	lds	r24, 0x0070
 9c8:	82 60       	ori	r24, 0x02	; 2
 9ca:	80 93 70 00 	sts	0x0070, r24
 9ce:	80 91 68 00 	lds	r24, 0x0068
 9d2:	81 60       	ori	r24, 0x01	; 1
 9d4:	80 93 68 00 	sts	0x0068, r24
 9d8:	d8 9a       	sbi	0x1b, 0	; 27
 9da:	80 91 6b 00 	lds	r24, 0x006B
 9de:	8f 7d       	andi	r24, 0xDF	; 223
 9e0:	80 93 6b 00 	sts	0x006B, r24
 9e4:	83 b7       	in	r24, 0x33	; 51
 9e6:	84 60       	ori	r24, 0x04	; 4
 9e8:	83 bf       	out	0x33, r24	; 51
 9ea:	8a e0       	ldi	r24, 0x0A	; 10
 9ec:	80 93 0a 01 	sts	0x010A, r24
 9f0:	80 93 0b 01 	sts	0x010B, r24
 9f4:	80 93 0c 01 	sts	0x010C, r24
 9f8:	80 93 09 01 	sts	0x0109, r24
 9fc:	78 94       	sei
 9fe:	0e 94 3a 03 	call	0x674	; 0x674 <StartUp>
 a02:	10 92 0a 01 	sts	0x010A, r1
 a06:	85 e0       	ldi	r24, 0x05	; 5
 a08:	80 93 0b 01 	sts	0x010B, r24
 a0c:	10 92 0c 01 	sts	0x010C, r1
 a10:	10 92 09 01 	sts	0x0109, r1
 a14:	88 eb       	ldi	r24, 0xB8	; 184
 a16:	9b e0       	ldi	r25, 0x0B	; 11
 a18:	90 93 14 01 	sts	0x0114, r25
 a1c:	80 93 13 01 	sts	0x0113, r24
 a20:	c2 e3       	ldi	r28, 0x32	; 50
 a22:	d0 e0       	ldi	r29, 0x00	; 0
 a24:	0e 94 2b 01 	call	0x256	; 0x256 <ENCODER_EVENT>
 a28:	8b e3       	ldi	r24, 0x3B	; 59
 a2a:	c8 2e       	mov	r12, r24
 a2c:	81 e0       	ldi	r24, 0x01	; 1
 a2e:	d8 2e       	mov	r13, r24
 a30:	90 e6       	ldi	r25, 0x60	; 96
 a32:	e9 2e       	mov	r14, r25
 a34:	91 e0       	ldi	r25, 0x01	; 1
 a36:	f9 2e       	mov	r15, r25
 a38:	09 e1       	ldi	r16, 0x19	; 25
 a3a:	10 e0       	ldi	r17, 0x00	; 0
 a3c:	21 e0       	ldi	r18, 0x01	; 1
 a3e:	30 e0       	ldi	r19, 0x00	; 0
 a40:	44 e0       	ldi	r20, 0x04	; 4
 a42:	63 e2       	ldi	r22, 0x23	; 35
 a44:	70 e0       	ldi	r23, 0x00	; 0
 a46:	88 e1       	ldi	r24, 0x18	; 24
 a48:	91 e0       	ldi	r25, 0x01	; 1
 a4a:	0e 94 b8 02 	call	0x570	; 0x570 <SuperDebounce>
 a4e:	80 91 16 01 	lds	r24, 0x0116
 a52:	90 91 17 01 	lds	r25, 0x0117
 a56:	89 2b       	or	r24, r25
 a58:	71 f4       	brne	.+28     	; 0xa76 <main+0xe2>
 a5a:	d0 93 17 01 	sts	0x0117, r29
 a5e:	c0 93 16 01 	sts	0x0116, r28
 a62:	8b b1       	in	r24, 0x0b	; 11
 a64:	94 e0       	ldi	r25, 0x04	; 4
 a66:	89 27       	eor	r24, r25
 a68:	8b b9       	out	0x0b, r24	; 11
 a6a:	80 91 01 01 	lds	r24, 0x0101
 a6e:	81 11       	cpse	r24, r1
 a70:	02 c0       	rjmp	.+4      	; 0xa76 <main+0xe2>
 a72:	0e 94 91 02 	call	0x522	; 0x522 <cutDown>
 a76:	80 91 11 01 	lds	r24, 0x0111
 a7a:	90 91 12 01 	lds	r25, 0x0112
 a7e:	89 2b       	or	r24, r25
 a80:	31 f4       	brne	.+12     	; 0xa8e <main+0xfa>
 a82:	80 91 01 01 	lds	r24, 0x0101
 a86:	83 30       	cpi	r24, 0x03	; 3
 a88:	11 f4       	brne	.+4      	; 0xa8e <main+0xfa>
 a8a:	0e 94 7c 01 	call	0x2f8	; 0x2f8 <Beebing>
 a8e:	80 91 13 01 	lds	r24, 0x0113
 a92:	90 91 14 01 	lds	r25, 0x0114
 a96:	89 2b       	or	r24, r25
 a98:	29 f6       	brne	.-118    	; 0xa24 <main+0x90>
 a9a:	80 91 01 01 	lds	r24, 0x0101
 a9e:	88 23       	and	r24, r24
 aa0:	09 f2       	breq	.-126    	; 0xa24 <main+0x90>
 aa2:	80 91 70 00 	lds	r24, 0x0070
 aa6:	8d 7f       	andi	r24, 0xFD	; 253
 aa8:	80 93 70 00 	sts	0x0070, r24
 aac:	0e 94 8d 00 	call	0x11a	; 0x11a <d_led_off>
 ab0:	80 91 6b 00 	lds	r24, 0x006B
 ab4:	80 62       	ori	r24, 0x20	; 32
 ab6:	80 93 6b 00 	sts	0x006B, r24
 aba:	83 b7       	in	r24, 0x33	; 51
 abc:	81 60       	ori	r24, 0x01	; 1
 abe:	83 bf       	out	0x33, r24	; 51
 ac0:	88 95       	sleep
 ac2:	83 b7       	in	r24, 0x33	; 51
 ac4:	8e 7f       	andi	r24, 0xFE	; 254
 ac6:	83 bf       	out	0x33, r24	; 51
 ac8:	ad cf       	rjmp	.-166    	; 0xa24 <main+0x90>

00000aca <__vector_3>:
 aca:	1f 92       	push	r1
 acc:	0f 92       	push	r0
 ace:	0f b6       	in	r0, 0x3f	; 63
 ad0:	0f 92       	push	r0
 ad2:	11 24       	eor	r1, r1
 ad4:	2f 93       	push	r18
 ad6:	3f 93       	push	r19
 ad8:	4f 93       	push	r20
 ada:	5f 93       	push	r21
 adc:	6f 93       	push	r22
 ade:	7f 93       	push	r23
 ae0:	8f 93       	push	r24
 ae2:	9f 93       	push	r25
 ae4:	af 93       	push	r26
 ae6:	bf 93       	push	r27
 ae8:	ef 93       	push	r30
 aea:	ff 93       	push	r31
 aec:	83 b7       	in	r24, 0x33	; 51
 aee:	8e 7f       	andi	r24, 0xFE	; 254
 af0:	83 bf       	out	0x33, r24	; 51
 af2:	0e 94 87 00 	call	0x10e	; 0x10e <d_led_on>
 af6:	e0 e7       	ldi	r30, 0x70	; 112
 af8:	f0 e0       	ldi	r31, 0x00	; 0
 afa:	80 81       	ld	r24, Z
 afc:	82 60       	ori	r24, 0x02	; 2
 afe:	80 83       	st	Z, r24
 b00:	eb e6       	ldi	r30, 0x6B	; 107
 b02:	f0 e0       	ldi	r31, 0x00	; 0
 b04:	80 81       	ld	r24, Z
 b06:	8f 7d       	andi	r24, 0xDF	; 223
 b08:	80 83       	st	Z, r24
 b0a:	88 eb       	ldi	r24, 0xB8	; 184
 b0c:	9b e0       	ldi	r25, 0x0B	; 11
 b0e:	90 93 14 01 	sts	0x0114, r25
 b12:	80 93 13 01 	sts	0x0113, r24
 b16:	ff 91       	pop	r31
 b18:	ef 91       	pop	r30
 b1a:	bf 91       	pop	r27
 b1c:	af 91       	pop	r26
 b1e:	9f 91       	pop	r25
 b20:	8f 91       	pop	r24
 b22:	7f 91       	pop	r23
 b24:	6f 91       	pop	r22
 b26:	5f 91       	pop	r21
 b28:	4f 91       	pop	r20
 b2a:	3f 91       	pop	r19
 b2c:	2f 91       	pop	r18
 b2e:	0f 90       	pop	r0
 b30:	0f be       	out	0x3f, r0	; 63
 b32:	0f 90       	pop	r0
 b34:	1f 90       	pop	r1
 b36:	18 95       	reti

00000b38 <__vector_7>:
 b38:	1f 92       	push	r1
 b3a:	0f 92       	push	r0
 b3c:	0f b6       	in	r0, 0x3f	; 63
 b3e:	0f 92       	push	r0
 b40:	11 24       	eor	r1, r1
 b42:	8f 93       	push	r24
 b44:	9f 93       	push	r25
 b46:	80 91 19 01 	lds	r24, 0x0119
 b4a:	90 91 1a 01 	lds	r25, 0x011A
 b4e:	00 97       	sbiw	r24, 0x00	; 0
 b50:	29 f0       	breq	.+10     	; 0xb5c <__vector_7+0x24>
 b52:	01 97       	sbiw	r24, 0x01	; 1
 b54:	90 93 1a 01 	sts	0x011A, r25
 b58:	80 93 19 01 	sts	0x0119, r24
 b5c:	80 91 16 01 	lds	r24, 0x0116
 b60:	90 91 17 01 	lds	r25, 0x0117
 b64:	00 97       	sbiw	r24, 0x00	; 0
 b66:	29 f0       	breq	.+10     	; 0xb72 <__vector_7+0x3a>
 b68:	01 97       	sbiw	r24, 0x01	; 1
 b6a:	90 93 17 01 	sts	0x0117, r25
 b6e:	80 93 16 01 	sts	0x0116, r24
 b72:	80 91 11 01 	lds	r24, 0x0111
 b76:	90 91 12 01 	lds	r25, 0x0112
 b7a:	00 97       	sbiw	r24, 0x00	; 0
 b7c:	29 f0       	breq	.+10     	; 0xb88 <__vector_7+0x50>
 b7e:	01 97       	sbiw	r24, 0x01	; 1
 b80:	90 93 12 01 	sts	0x0112, r25
 b84:	80 93 11 01 	sts	0x0111, r24
 b88:	80 91 13 01 	lds	r24, 0x0113
 b8c:	90 91 14 01 	lds	r25, 0x0114
 b90:	00 97       	sbiw	r24, 0x00	; 0
 b92:	29 f0       	breq	.+10     	; 0xb9e <__vector_7+0x66>
 b94:	01 97       	sbiw	r24, 0x01	; 1
 b96:	90 93 14 01 	sts	0x0114, r25
 b9a:	80 93 13 01 	sts	0x0113, r24
 b9e:	9f 91       	pop	r25
 ba0:	8f 91       	pop	r24
 ba2:	0f 90       	pop	r0
 ba4:	0f be       	out	0x3f, r0	; 63
 ba6:	0f 90       	pop	r0
 ba8:	1f 90       	pop	r1
 baa:	18 95       	reti

00000bac <_exit>:
 bac:	f8 94       	cli

00000bae <__stop_program>:
 bae:	ff cf       	rjmp	.-2      	; 0xbae <__stop_program>
